CCS PCM C Compiler, Version 5.025, 63300               15-feb.-23 10:23

               Filename:   C:\Users\luist\OneDrive\Escritorio\8VO\MICRO\PROGRAMAS\Prueba2\pureba2.lst

               ROM used:   1737 words (21%)
                           Largest free fragment is 2048
               RAM used:   13 (4%) at main() level
                           59 (16%) worst case
               Stack used: 2 locations
               Stack size: 8

*
0000:  MOVLW  05
0001:  MOVWF  0A
0002:  GOTO   512
0003:  NOP
.................... #include <16F877a.h> 
.................... //////////// Standard Header file for the PIC16F877A device //////////////// 
.................... /////////////////////////////////////////////////////////////////////////// 
.................... ////        (C) Copyright 1996, 2013 Custom Computer Services          //// 
.................... //// This source code may only be used by licensed users of the CCS C  //// 
.................... //// compiler.  This source code may only be distributed to other      //// 
.................... //// licensed users of the CCS C compiler.  No other use, reproduction //// 
.................... //// or distribution is permitted without written permission.          //// 
.................... //// Derivative programs created using this software in object code    //// 
.................... //// form are not restricted in any way.                               //// 
.................... /////////////////////////////////////////////////////////////////////////// 
.................... #device PIC16F877A 
0004:  DATA C8,37
0005:  DATA EC,30
0006:  DATA A0,36
0007:  DATA 75,37
0008:  DATA E4,37
0009:  DATA 8A,06
000A:  DATA 00,00
000B:  MOVF   0B,W
000C:  MOVWF  33
000D:  BCF    0B.7
000E:  BSF    03.5
000F:  BSF    03.6
0010:  BSF    0C.7
0011:  BSF    0C.0
0012:  NOP
0013:  NOP
0014:  BCF    03.5
0015:  BCF    03.6
0016:  BTFSC  33.7
0017:  BSF    0B.7
0018:  BSF    03.6
0019:  MOVF   0C,W
001A:  ANDLW  7F
001B:  BTFSC  03.2
001C:  GOTO   061
001D:  BCF    03.6
001E:  MOVWF  33
001F:  BSF    03.6
0020:  MOVF   0D,W
0021:  BCF    03.6
0022:  MOVWF  34
0023:  BSF    03.6
0024:  MOVF   0F,W
0025:  BCF    03.6
0026:  MOVWF  35
0027:  MOVF   33,W
0028:  BTFSS  0C.4
0029:  GOTO   028
002A:  MOVWF  19
002B:  MOVF   34,W
002C:  BSF    03.6
002D:  MOVWF  0D
002E:  BCF    03.6
002F:  MOVF   35,W
0030:  BSF    03.6
0031:  MOVWF  0F
0032:  BCF    03.6
0033:  MOVF   0B,W
0034:  MOVWF  36
0035:  BCF    0B.7
0036:  BSF    03.5
0037:  BSF    03.6
0038:  BSF    0C.7
0039:  BSF    0C.0
003A:  NOP
003B:  NOP
003C:  BCF    03.5
003D:  BCF    03.6
003E:  BTFSC  36.7
003F:  BSF    0B.7
0040:  BSF    03.6
0041:  RLF    0C,W
0042:  RLF    0E,W
0043:  ANDLW  7F
0044:  BTFSC  03.2
0045:  GOTO   061
0046:  BCF    03.6
0047:  MOVWF  33
0048:  BSF    03.6
0049:  MOVF   0D,W
004A:  BCF    03.6
004B:  MOVWF  34
004C:  BSF    03.6
004D:  MOVF   0F,W
004E:  BCF    03.6
004F:  MOVWF  35
0050:  MOVF   33,W
0051:  BTFSS  0C.4
0052:  GOTO   051
0053:  MOVWF  19
0054:  MOVF   34,W
0055:  BSF    03.6
0056:  MOVWF  0D
0057:  BCF    03.6
0058:  MOVF   35,W
0059:  BSF    03.6
005A:  MOVWF  0F
005B:  INCF   0D,F
005C:  BTFSC  03.2
005D:  INCF   0F,F
005E:  BCF    03.6
005F:  GOTO   00B
0060:  BSF    03.6
0061:  BCF    03.6
0062:  BCF    0A.3
0063:  BCF    0A.4
0064:  GOTO   533 (RETURN)
0065:  MOVLW  8E
0066:  MOVWF  77
0067:  MOVF   38,W
0068:  MOVWF  78
0069:  MOVF   37,W
006A:  MOVWF  79
006B:  CLRF   7A
006C:  MOVF   78,F
006D:  BTFSS  03.2
006E:  GOTO   079
006F:  MOVF   79,W
0070:  MOVWF  78
0071:  CLRF   79
0072:  MOVLW  08
0073:  SUBWF  77,F
0074:  MOVF   78,F
0075:  BTFSS  03.2
0076:  GOTO   079
0077:  CLRF   77
0078:  GOTO   081
0079:  BCF    03.0
007A:  BTFSC  78.7
007B:  GOTO   080
007C:  RLF    79,F
007D:  RLF    78,F
007E:  DECF   77,F
007F:  GOTO   079
0080:  BCF    78.7
0081:  RETURN
0082:  MOVLW  80
0083:  BTFSC  03.1
0084:  XORWF  4C,F
0085:  CLRF   51
0086:  CLRF   52
0087:  MOVF   48,W
0088:  MOVWF  50
0089:  MOVF   4C,W
008A:  XORWF  50,F
008B:  MOVF   47,W
008C:  BTFSC  03.2
008D:  GOTO   172
008E:  MOVWF  4F
008F:  MOVWF  77
0090:  MOVF   4B,W
0091:  BTFSC  03.2
0092:  GOTO   17B
0093:  SUBWF  4F,F
0094:  BTFSC  03.2
0095:  GOTO   117
0096:  BTFSS  03.0
0097:  GOTO   0D5
0098:  MOVF   4C,W
0099:  MOVWF  55
009A:  BSF    55.7
009B:  MOVF   4D,W
009C:  MOVWF  54
009D:  MOVF   4E,W
009E:  MOVWF  53
009F:  CLRF   52
00A0:  BCF    03.0
00A1:  RRF    55,F
00A2:  RRF    54,F
00A3:  RRF    53,F
00A4:  RRF    52,F
00A5:  DECFSZ 4F,F
00A6:  GOTO   09F
00A7:  BTFSS  50.7
00A8:  GOTO   0AC
00A9:  BSF    51.0
00AA:  GOTO   18F
00AB:  BCF    51.0
00AC:  BCF    4F.0
00AD:  BSF    51.4
00AE:  MOVLW  4A
00AF:  MOVWF  04
00B0:  BCF    03.7
00B1:  GOTO   1A4
00B2:  BCF    51.4
00B3:  BTFSC  50.7
00B4:  GOTO   0BF
00B5:  BTFSS  4F.0
00B6:  GOTO   0CA
00B7:  RRF    55,F
00B8:  RRF    54,F
00B9:  RRF    53,F
00BA:  RRF    52,F
00BB:  INCF   77,F
00BC:  BTFSC  03.2
00BD:  GOTO   18A
00BE:  GOTO   0CA
00BF:  BTFSC  55.7
00C0:  GOTO   0CD
00C1:  BCF    03.0
00C2:  RLF    52,F
00C3:  RLF    53,F
00C4:  RLF    54,F
00C5:  RLF    55,F
00C6:  DECF   77,F
00C7:  BTFSC  03.2
00C8:  GOTO   18A
00C9:  GOTO   0BF
00CA:  BSF    51.6
00CB:  GOTO   137
00CC:  BCF    51.6
00CD:  MOVF   48,W
00CE:  MOVWF  50
00CF:  BTFSS  50.7
00D0:  GOTO   0D3
00D1:  BSF    55.7
00D2:  GOTO   183
00D3:  BCF    55.7
00D4:  GOTO   183
00D5:  MOVF   4B,W
00D6:  MOVWF  4F
00D7:  MOVWF  77
00D8:  MOVF   47,W
00D9:  SUBWF  4F,F
00DA:  MOVF   48,W
00DB:  MOVWF  55
00DC:  BSF    55.7
00DD:  MOVF   49,W
00DE:  MOVWF  54
00DF:  MOVF   4A,W
00E0:  MOVWF  53
00E1:  CLRF   52
00E2:  BCF    03.0
00E3:  RRF    55,F
00E4:  RRF    54,F
00E5:  RRF    53,F
00E6:  RRF    52,F
00E7:  DECFSZ 4F,F
00E8:  GOTO   0E1
00E9:  BTFSS  50.7
00EA:  GOTO   0EE
00EB:  BSF    51.1
00EC:  GOTO   18F
00ED:  BCF    51.1
00EE:  BCF    4F.0
00EF:  BSF    51.5
00F0:  MOVLW  4E
00F1:  MOVWF  04
00F2:  BCF    03.7
00F3:  GOTO   1A4
00F4:  BCF    51.5
00F5:  BTFSC  50.7
00F6:  GOTO   101
00F7:  BTFSS  4F.0
00F8:  GOTO   10C
00F9:  RRF    55,F
00FA:  RRF    54,F
00FB:  RRF    53,F
00FC:  RRF    52,F
00FD:  INCF   77,F
00FE:  BTFSC  03.2
00FF:  GOTO   18A
0100:  GOTO   10C
0101:  BTFSC  55.7
0102:  GOTO   10F
0103:  BCF    03.0
0104:  RLF    52,F
0105:  RLF    53,F
0106:  RLF    54,F
0107:  RLF    55,F
0108:  DECF   77,F
0109:  BTFSC  03.2
010A:  GOTO   18A
010B:  GOTO   101
010C:  BSF    51.7
010D:  GOTO   137
010E:  BCF    51.7
010F:  MOVF   4C,W
0110:  MOVWF  50
0111:  BTFSS  50.7
0112:  GOTO   115
0113:  BSF    55.7
0114:  GOTO   183
0115:  BCF    55.7
0116:  GOTO   183
0117:  MOVF   4C,W
0118:  MOVWF  55
0119:  BSF    55.7
011A:  MOVF   4D,W
011B:  MOVWF  54
011C:  MOVF   4E,W
011D:  MOVWF  53
011E:  BTFSS  50.7
011F:  GOTO   124
0120:  BCF    55.7
0121:  BSF    51.2
0122:  GOTO   18F
0123:  BCF    51.2
0124:  CLRF   52
0125:  BCF    4F.0
0126:  MOVLW  4A
0127:  MOVWF  04
0128:  BCF    03.7
0129:  GOTO   1A4
012A:  BTFSC  50.7
012B:  GOTO   14D
012C:  MOVF   48,W
012D:  MOVWF  50
012E:  BTFSS  4F.0
012F:  GOTO   137
0130:  RRF    55,F
0131:  RRF    54,F
0132:  RRF    53,F
0133:  RRF    52,F
0134:  INCF   77,F
0135:  BTFSC  03.2
0136:  GOTO   18A
0137:  BTFSS  52.7
0138:  GOTO   148
0139:  INCF   53,F
013A:  BTFSS  03.2
013B:  GOTO   148
013C:  INCF   54,F
013D:  BTFSS  03.2
013E:  GOTO   148
013F:  INCF   55,F
0140:  BTFSS  03.2
0141:  GOTO   148
0142:  RRF    55,F
0143:  RRF    54,F
0144:  RRF    53,F
0145:  INCF   77,F
0146:  BTFSC  03.2
0147:  GOTO   18A
0148:  BTFSC  51.6
0149:  GOTO   0CC
014A:  BTFSC  51.7
014B:  GOTO   10E
014C:  GOTO   16C
014D:  MOVLW  80
014E:  XORWF  55,F
014F:  BTFSS  55.7
0150:  GOTO   155
0151:  GOTO   18F
0152:  MOVF   4C,W
0153:  MOVWF  50
0154:  GOTO   162
0155:  MOVF   48,W
0156:  MOVWF  50
0157:  MOVF   55,F
0158:  BTFSS  03.2
0159:  GOTO   162
015A:  MOVF   54,F
015B:  BTFSS  03.2
015C:  GOTO   162
015D:  MOVF   53,F
015E:  BTFSS  03.2
015F:  GOTO   162
0160:  CLRF   77
0161:  GOTO   183
0162:  BTFSC  55.7
0163:  GOTO   16C
0164:  BCF    03.0
0165:  RLF    52,F
0166:  RLF    53,F
0167:  RLF    54,F
0168:  RLF    55,F
0169:  DECFSZ 77,F
016A:  GOTO   162
016B:  GOTO   18A
016C:  BTFSS  50.7
016D:  GOTO   170
016E:  BSF    55.7
016F:  GOTO   183
0170:  BCF    55.7
0171:  GOTO   183
0172:  MOVF   4B,W
0173:  MOVWF  77
0174:  MOVF   4C,W
0175:  MOVWF  55
0176:  MOVF   4D,W
0177:  MOVWF  54
0178:  MOVF   4E,W
0179:  MOVWF  53
017A:  GOTO   183
017B:  MOVF   47,W
017C:  MOVWF  77
017D:  MOVF   48,W
017E:  MOVWF  55
017F:  MOVF   49,W
0180:  MOVWF  54
0181:  MOVF   4A,W
0182:  MOVWF  53
0183:  MOVF   55,W
0184:  MOVWF  78
0185:  MOVF   54,W
0186:  MOVWF  79
0187:  MOVF   53,W
0188:  MOVWF  7A
0189:  GOTO   1C2
018A:  CLRF   77
018B:  CLRF   78
018C:  CLRF   79
018D:  CLRF   7A
018E:  GOTO   1C2
018F:  CLRF   52
0190:  COMF   53,F
0191:  COMF   54,F
0192:  COMF   55,F
0193:  COMF   52,F
0194:  INCF   52,F
0195:  BTFSS  03.2
0196:  GOTO   19D
0197:  INCF   53,F
0198:  BTFSS  03.2
0199:  GOTO   19D
019A:  INCF   54,F
019B:  BTFSC  03.2
019C:  INCF   55,F
019D:  BTFSC  51.0
019E:  GOTO   0AB
019F:  BTFSC  51.1
01A0:  GOTO   0ED
01A1:  BTFSC  51.2
01A2:  GOTO   123
01A3:  GOTO   152
01A4:  MOVF   00,W
01A5:  ADDWF  53,F
01A6:  BTFSS  03.0
01A7:  GOTO   1AE
01A8:  INCF   54,F
01A9:  BTFSS  03.2
01AA:  GOTO   1AE
01AB:  INCF   55,F
01AC:  BTFSC  03.2
01AD:  BSF    4F.0
01AE:  DECF   04,F
01AF:  MOVF   00,W
01B0:  ADDWF  54,F
01B1:  BTFSS  03.0
01B2:  GOTO   1B6
01B3:  INCF   55,F
01B4:  BTFSC  03.2
01B5:  BSF    4F.0
01B6:  DECF   04,F
01B7:  MOVF   00,W
01B8:  BTFSS  00.7
01B9:  XORLW  80
01BA:  ADDWF  55,F
01BB:  BTFSC  03.0
01BC:  BSF    4F.0
01BD:  BTFSC  51.4
01BE:  GOTO   0B2
01BF:  BTFSC  51.5
01C0:  GOTO   0F4
01C1:  GOTO   12A
01C2:  RETURN
*
021D:  MOVF   47,W
021E:  BTFSC  03.2
021F:  GOTO   2E2
0220:  MOVWF  53
0221:  MOVF   4B,W
0222:  BTFSC  03.2
0223:  GOTO   2E2
0224:  SUBWF  53,F
0225:  BTFSS  03.0
0226:  GOTO   22C
0227:  MOVLW  7F
0228:  ADDWF  53,F
0229:  BTFSC  03.0
022A:  GOTO   2E2
022B:  GOTO   232
022C:  MOVLW  81
022D:  SUBWF  53,F
022E:  BTFSS  03.0
022F:  GOTO   2E2
0230:  BTFSC  03.2
0231:  GOTO   2E2
0232:  MOVF   53,W
0233:  MOVWF  77
0234:  CLRF   78
0235:  CLRF   79
0236:  CLRF   7A
0237:  CLRF   52
0238:  MOVF   48,W
0239:  MOVWF  51
023A:  BSF    51.7
023B:  MOVF   49,W
023C:  MOVWF  50
023D:  MOVF   4A,W
023E:  MOVWF  4F
023F:  MOVLW  19
0240:  MOVWF  53
0241:  MOVF   4E,W
0242:  SUBWF  4F,F
0243:  BTFSC  03.0
0244:  GOTO   255
0245:  MOVLW  01
0246:  SUBWF  50,F
0247:  BTFSC  03.0
0248:  GOTO   255
0249:  SUBWF  51,F
024A:  BTFSC  03.0
024B:  GOTO   255
024C:  SUBWF  52,F
024D:  BTFSC  03.0
024E:  GOTO   255
024F:  INCF   52,F
0250:  INCF   51,F
0251:  INCF   50,F
0252:  MOVF   4E,W
0253:  ADDWF  4F,F
0254:  GOTO   287
0255:  MOVF   4D,W
0256:  SUBWF  50,F
0257:  BTFSC  03.0
0258:  GOTO   270
0259:  MOVLW  01
025A:  SUBWF  51,F
025B:  BTFSC  03.0
025C:  GOTO   270
025D:  SUBWF  52,F
025E:  BTFSC  03.0
025F:  GOTO   270
0260:  INCF   52,F
0261:  INCF   51,F
0262:  MOVF   4D,W
0263:  ADDWF  50,F
0264:  MOVF   4E,W
0265:  ADDWF  4F,F
0266:  BTFSS  03.0
0267:  GOTO   287
0268:  INCF   50,F
0269:  BTFSS  03.2
026A:  GOTO   287
026B:  INCF   51,F
026C:  BTFSS  03.2
026D:  GOTO   287
026E:  INCF   52,F
026F:  GOTO   287
0270:  MOVF   4C,W
0271:  IORLW  80
0272:  SUBWF  51,F
0273:  BTFSC  03.0
0274:  GOTO   286
0275:  MOVLW  01
0276:  SUBWF  52,F
0277:  BTFSC  03.0
0278:  GOTO   286
0279:  INCF   52,F
027A:  MOVF   4C,W
027B:  IORLW  80
027C:  ADDWF  51,F
027D:  MOVF   4D,W
027E:  ADDWF  50,F
027F:  BTFSS  03.0
0280:  GOTO   264
0281:  INCF   51,F
0282:  BTFSS  03.2
0283:  GOTO   264
0284:  INCF   52,F
0285:  GOTO   264
0286:  BSF    7A.0
0287:  DECFSZ 53,F
0288:  GOTO   28A
0289:  GOTO   295
028A:  BCF    03.0
028B:  RLF    4F,F
028C:  RLF    50,F
028D:  RLF    51,F
028E:  RLF    52,F
028F:  BCF    03.0
0290:  RLF    7A,F
0291:  RLF    79,F
0292:  RLF    78,F
0293:  RLF    54,F
0294:  GOTO   241
0295:  BTFSS  54.0
0296:  GOTO   29D
0297:  BCF    03.0
0298:  RRF    78,F
0299:  RRF    79,F
029A:  RRF    7A,F
029B:  RRF    54,F
029C:  GOTO   2A0
029D:  DECF   77,F
029E:  BTFSC  03.2
029F:  GOTO   2E2
02A0:  BTFSC  54.7
02A1:  GOTO   2C9
02A2:  BCF    03.0
02A3:  RLF    4F,F
02A4:  RLF    50,F
02A5:  RLF    51,F
02A6:  RLF    52,F
02A7:  MOVF   4E,W
02A8:  SUBWF  4F,F
02A9:  BTFSC  03.0
02AA:  GOTO   2B5
02AB:  MOVLW  01
02AC:  SUBWF  50,F
02AD:  BTFSC  03.0
02AE:  GOTO   2B5
02AF:  SUBWF  51,F
02B0:  BTFSC  03.0
02B1:  GOTO   2B5
02B2:  SUBWF  52,F
02B3:  BTFSS  03.0
02B4:  GOTO   2D8
02B5:  MOVF   4D,W
02B6:  SUBWF  50,F
02B7:  BTFSC  03.0
02B8:  GOTO   2C0
02B9:  MOVLW  01
02BA:  SUBWF  51,F
02BB:  BTFSC  03.0
02BC:  GOTO   2C0
02BD:  SUBWF  52,F
02BE:  BTFSS  03.0
02BF:  GOTO   2D8
02C0:  MOVF   4C,W
02C1:  IORLW  80
02C2:  SUBWF  51,F
02C3:  BTFSC  03.0
02C4:  GOTO   2C9
02C5:  MOVLW  01
02C6:  SUBWF  52,F
02C7:  BTFSS  03.0
02C8:  GOTO   2D8
02C9:  INCF   7A,F
02CA:  BTFSS  03.2
02CB:  GOTO   2D8
02CC:  INCF   79,F
02CD:  BTFSS  03.2
02CE:  GOTO   2D8
02CF:  INCF   78,F
02D0:  BTFSS  03.2
02D1:  GOTO   2D8
02D2:  INCF   77,F
02D3:  BTFSC  03.2
02D4:  GOTO   2E2
02D5:  RRF    78,F
02D6:  RRF    79,F
02D7:  RRF    7A,F
02D8:  MOVF   48,W
02D9:  MOVWF  53
02DA:  MOVF   4C,W
02DB:  XORWF  53,F
02DC:  BTFSS  53.7
02DD:  GOTO   2E0
02DE:  BSF    78.7
02DF:  GOTO   2E6
02E0:  BCF    78.7
02E1:  GOTO   2E6
02E2:  CLRF   77
02E3:  CLRF   78
02E4:  CLRF   79
02E5:  CLRF   7A
*
02F9:  MOVF   47,W
02FA:  BTFSC  03.2
02FB:  GOTO   369
02FC:  MOVWF  4F
02FD:  MOVF   4B,W
02FE:  BTFSC  03.2
02FF:  GOTO   369
0300:  ADDWF  4F,F
0301:  BTFSC  03.0
0302:  GOTO   30A
0303:  MOVLW  7F
0304:  SUBWF  4F,F
0305:  BTFSS  03.0
0306:  GOTO   369
0307:  BTFSC  03.2
0308:  GOTO   369
0309:  GOTO   30E
030A:  MOVLW  81
030B:  ADDWF  4F,F
030C:  BTFSC  03.0
030D:  GOTO   369
030E:  MOVF   4F,W
030F:  MOVWF  77
0310:  CLRF   78
0311:  CLRF   79
0312:  CLRF   7A
0313:  MOVF   48,W
0314:  MOVWF  53
0315:  BSF    53.7
0316:  MOVF   49,W
0317:  MOVWF  52
0318:  MOVF   4A,W
0319:  MOVWF  51
031A:  MOVLW  18
031B:  MOVWF  4F
031C:  CLRF   50
031D:  BTFSS  51.0
031E:  GOTO   337
031F:  MOVF   4E,W
0320:  ADDWF  7A,F
0321:  BTFSS  03.0
0322:  GOTO   329
0323:  INCF   79,F
0324:  BTFSS  03.2
0325:  GOTO   329
0326:  INCF   78,F
0327:  BTFSC  03.2
0328:  BSF    50.7
0329:  MOVF   4D,W
032A:  ADDWF  79,F
032B:  BTFSS  03.0
032C:  GOTO   330
032D:  INCF   78,F
032E:  BTFSC  03.2
032F:  BSF    50.7
0330:  MOVF   4C,W
0331:  MOVWF  49
0332:  BSF    49.7
0333:  MOVF   49,W
0334:  ADDWF  78,F
0335:  BTFSC  03.0
0336:  BSF    50.7
0337:  RLF    50,F
0338:  RRF    78,F
0339:  RRF    79,F
033A:  RRF    7A,F
033B:  RRF    53,F
033C:  RRF    52,F
033D:  RRF    51,F
033E:  BCF    03.0
033F:  DECFSZ 4F,F
0340:  GOTO   31C
0341:  MOVLW  01
0342:  ADDWF  77,F
0343:  BTFSC  03.0
0344:  GOTO   369
0345:  BTFSC  78.7
0346:  GOTO   34E
0347:  RLF    53,F
0348:  RLF    7A,F
0349:  RLF    79,F
034A:  RLF    78,F
034B:  DECF   77,F
034C:  BTFSC  03.2
034D:  GOTO   369
034E:  BTFSS  53.7
034F:  GOTO   35F
0350:  INCF   7A,F
0351:  BTFSS  03.2
0352:  GOTO   35F
0353:  INCF   79,F
0354:  BTFSS  03.2
0355:  GOTO   35F
0356:  INCF   78,F
0357:  BTFSS  03.2
0358:  GOTO   35F
0359:  RRF    78,F
035A:  RRF    79,F
035B:  RRF    7A,F
035C:  INCF   77,F
035D:  BTFSC  03.2
035E:  GOTO   369
035F:  MOVF   48,W
0360:  MOVWF  50
0361:  MOVF   4C,W
0362:  XORWF  50,F
0363:  BTFSS  50.7
0364:  GOTO   367
0365:  BSF    78.7
0366:  GOTO   36D
0367:  BCF    78.7
0368:  GOTO   36D
0369:  CLRF   77
036A:  CLRF   78
036B:  CLRF   79
036C:  CLRF   7A
036D:  RETURN
*
0392:  MOVF   36,W
0393:  CLRF   78
0394:  SUBWF  35,W
0395:  BTFSC  03.0
0396:  GOTO   39A
0397:  MOVF   35,W
0398:  MOVWF  77
0399:  GOTO   3A6
039A:  CLRF   77
039B:  MOVLW  08
039C:  MOVWF  37
039D:  RLF    35,F
039E:  RLF    77,F
039F:  MOVF   36,W
03A0:  SUBWF  77,W
03A1:  BTFSC  03.0
03A2:  MOVWF  77
03A3:  RLF    78,F
03A4:  DECFSZ 37,F
03A5:  GOTO   39D
03A6:  RETURN
03A7:  MOVF   78,W
03A8:  MOVF   33,W
03A9:  MOVWF  35
03AA:  MOVLW  64
03AB:  MOVWF  36
03AC:  CALL   392
03AD:  MOVF   77,W
03AE:  MOVWF  33
03AF:  MOVF   78,W
03B0:  MOVLW  30
03B1:  BTFSS  03.2
03B2:  GOTO   3BA
03B3:  BTFSS  34.1
03B4:  GOTO   3C2
03B5:  BTFSC  34.3
03B6:  GOTO   3C2
03B7:  BTFSC  34.4
03B8:  MOVLW  20
03B9:  GOTO   3BD
03BA:  BCF    34.3
03BB:  BCF    34.4
03BC:  BSF    34.0
03BD:  ADDWF  78,F
03BE:  MOVF   78,W
03BF:  BTFSS  0C.4
03C0:  GOTO   3BF
03C1:  MOVWF  19
03C2:  MOVF   33,W
03C3:  MOVWF  35
03C4:  MOVLW  0A
03C5:  MOVWF  36
03C6:  CALL   392
03C7:  MOVF   77,W
03C8:  MOVWF  33
03C9:  MOVF   78,W
03CA:  MOVLW  30
03CB:  BTFSS  03.2
03CC:  GOTO   3D3
03CD:  BTFSC  34.3
03CE:  GOTO   3D8
03CF:  BTFSS  34.0
03D0:  GOTO   3D8
03D1:  BTFSC  34.4
03D2:  MOVLW  20
03D3:  ADDWF  78,F
03D4:  MOVF   78,W
03D5:  BTFSS  0C.4
03D6:  GOTO   3D5
03D7:  MOVWF  19
03D8:  MOVLW  30
03D9:  ADDWF  33,F
03DA:  MOVF   33,W
03DB:  BTFSS  0C.4
03DC:  GOTO   3DB
03DD:  MOVWF  19
03DE:  RETURN
03DF:  BTFSC  03.1
03E0:  GOTO   3E4
03E1:  MOVLW  48
03E2:  MOVWF  04
03E3:  BCF    03.7
03E4:  CLRF   77
03E5:  CLRF   78
03E6:  CLRF   79
03E7:  CLRF   7A
03E8:  CLRF   48
03E9:  CLRF   49
03EA:  CLRF   4A
03EB:  CLRF   4B
03EC:  MOVF   47,W
03ED:  IORWF  46,W
03EE:  IORWF  45,W
03EF:  IORWF  44,W
03F0:  BTFSC  03.2
03F1:  GOTO   422
03F2:  MOVLW  20
03F3:  MOVWF  4C
03F4:  BCF    03.0
03F5:  RLF    40,F
03F6:  RLF    41,F
03F7:  RLF    42,F
03F8:  RLF    43,F
03F9:  RLF    48,F
03FA:  RLF    49,F
03FB:  RLF    4A,F
03FC:  RLF    4B,F
03FD:  MOVF   47,W
03FE:  SUBWF  4B,W
03FF:  BTFSS  03.2
0400:  GOTO   40B
0401:  MOVF   46,W
0402:  SUBWF  4A,W
0403:  BTFSS  03.2
0404:  GOTO   40B
0405:  MOVF   45,W
0406:  SUBWF  49,W
0407:  BTFSS  03.2
0408:  GOTO   40B
0409:  MOVF   44,W
040A:  SUBWF  48,W
040B:  BTFSS  03.0
040C:  GOTO   41C
040D:  MOVF   44,W
040E:  SUBWF  48,F
040F:  MOVF   45,W
0410:  BTFSS  03.0
0411:  INCFSZ 45,W
0412:  SUBWF  49,F
0413:  MOVF   46,W
0414:  BTFSS  03.0
0415:  INCFSZ 46,W
0416:  SUBWF  4A,F
0417:  MOVF   47,W
0418:  BTFSS  03.0
0419:  INCFSZ 47,W
041A:  SUBWF  4B,F
041B:  BSF    03.0
041C:  RLF    77,F
041D:  RLF    78,F
041E:  RLF    79,F
041F:  RLF    7A,F
0420:  DECFSZ 4C,F
0421:  GOTO   3F4
0422:  MOVF   48,W
0423:  MOVWF  00
0424:  INCF   04,F
0425:  MOVF   49,W
0426:  MOVWF  00
0427:  INCF   04,F
0428:  MOVF   4A,W
0429:  MOVWF  00
042A:  INCF   04,F
042B:  MOVF   4B,W
042C:  MOVWF  00
042D:  RETURN
042E:  MOVF   04,W
042F:  MOVWF  38
0430:  MOVF   37,W
0431:  MOVWF  3A
0432:  BTFSC  03.2
0433:  GOTO   44D
0434:  MOVF   36,W
0435:  MOVWF  4A
0436:  MOVF   35,W
0437:  MOVWF  49
0438:  MOVF   34,W
0439:  MOVWF  48
043A:  MOVF   33,W
043B:  MOVWF  47
043C:  CLRF   4E
043D:  CLRF   4D
043E:  MOVLW  20
043F:  MOVWF  4C
0440:  MOVLW  82
0441:  MOVWF  4B
0442:  CALL   2F9
0443:  MOVF   7A,W
0444:  MOVWF  36
0445:  MOVF   79,W
0446:  MOVWF  35
0447:  MOVF   78,W
0448:  MOVWF  34
0449:  MOVF   77,W
044A:  MOVWF  33
044B:  DECFSZ 3A,F
044C:  GOTO   434
044D:  MOVF   36,W
044E:  MOVWF  43
044F:  MOVF   35,W
0450:  MOVWF  42
0451:  MOVF   34,W
0452:  MOVWF  41
0453:  MOVF   33,W
0454:  MOVWF  40
0455:  MOVF   40,W
0456:  SUBLW  B6
0457:  MOVWF  40
0458:  CLRF   7A
0459:  MOVF   41,W
045A:  MOVWF  44
045B:  BSF    41.7
045C:  BCF    03.0
045D:  RRF    41,F
045E:  RRF    42,F
045F:  RRF    43,F
0460:  RRF    7A,F
0461:  RRF    79,F
0462:  RRF    78,F
0463:  RRF    77,F
0464:  DECFSZ 40,F
0465:  GOTO   45C
0466:  BTFSS  44.7
0467:  GOTO   473
0468:  COMF   77,F
0469:  COMF   78,F
046A:  COMF   79,F
046B:  COMF   7A,F
046C:  INCF   77,F
046D:  BTFSC  03.2
046E:  INCF   78,F
046F:  BTFSC  03.2
0470:  INCF   79,F
0471:  BTFSC  03.2
0472:  INCF   7A,F
0473:  MOVF   7A,W
0474:  MOVWF  36
0475:  MOVF   79,W
0476:  MOVWF  35
0477:  MOVF   78,W
0478:  MOVWF  34
0479:  MOVF   77,W
047A:  MOVWF  33
047B:  BTFSS  36.7
047C:  GOTO   48A
047D:  DECF   38,F
047E:  BSF    38.5
047F:  COMF   33,F
0480:  COMF   34,F
0481:  COMF   35,F
0482:  COMF   36,F
0483:  INCF   33,F
0484:  BTFSC  03.2
0485:  INCF   34,F
0486:  BTFSC  03.2
0487:  INCF   35,F
0488:  BTFSC  03.2
0489:  INCF   36,F
048A:  MOVLW  3B
048B:  MOVWF  3F
048C:  MOVLW  9A
048D:  MOVWF  3E
048E:  MOVLW  CA
048F:  MOVWF  3D
0490:  CLRF   3C
0491:  MOVLW  0A
0492:  MOVWF  3A
0493:  MOVF   37,W
0494:  BTFSC  03.2
0495:  INCF   38,F
0496:  BSF    03.1
0497:  MOVLW  33
0498:  MOVWF  04
0499:  BCF    03.7
049A:  MOVF   36,W
049B:  MOVWF  43
049C:  MOVF   35,W
049D:  MOVWF  42
049E:  MOVF   34,W
049F:  MOVWF  41
04A0:  MOVF   33,W
04A1:  MOVWF  40
04A2:  MOVF   3F,W
04A3:  MOVWF  47
04A4:  MOVF   3E,W
04A5:  MOVWF  46
04A6:  MOVF   3D,W
04A7:  MOVWF  45
04A8:  MOVF   3C,W
04A9:  MOVWF  44
04AA:  CALL   3DF
04AB:  MOVF   78,W
04AC:  MOVF   77,F
04AD:  BTFSS  03.2
04AE:  GOTO   4C2
04AF:  INCF   37,W
04B0:  SUBWF  3A,W
04B1:  BTFSC  03.2
04B2:  GOTO   4C2
04B3:  MOVF   38,W
04B4:  BTFSC  03.2
04B5:  GOTO   4C4
04B6:  ANDLW  0F
04B7:  SUBWF  3A,W
04B8:  BTFSC  03.2
04B9:  GOTO   4BC
04BA:  BTFSC  03.0
04BB:  GOTO   4F8
04BC:  BTFSC  38.7
04BD:  GOTO   4F8
04BE:  BTFSC  38.6
04BF:  GOTO   4C4
04C0:  MOVLW  20
04C1:  GOTO   4F3
04C2:  MOVLW  20
04C3:  ANDWF  38,F
04C4:  BTFSS  38.5
04C5:  GOTO   4D3
04C6:  BCF    38.5
04C7:  MOVF   37,W
04C8:  BTFSS  03.2
04C9:  DECF   38,F
04CA:  MOVF   77,W
04CB:  MOVWF  38
04CC:  MOVLW  2D
04CD:  BTFSS  0C.4
04CE:  GOTO   4CD
04CF:  MOVWF  19
04D0:  MOVF   38,W
04D1:  MOVWF  77
04D2:  CLRF   38
04D3:  MOVF   37,W
04D4:  SUBWF  3A,W
04D5:  BTFSS  03.2
04D6:  GOTO   4E2
04D7:  MOVF   77,W
04D8:  MOVWF  38
04D9:  MOVLW  2E
04DA:  BTFSS  0C.4
04DB:  GOTO   4DA
04DC:  MOVWF  19
04DD:  MOVF   38,W
04DE:  MOVWF  77
04DF:  MOVLW  20
04E0:  ANDWF  38,F
04E1:  MOVLW  00
04E2:  MOVLW  30
04E3:  BTFSS  38.5
04E4:  GOTO   4F3
04E5:  BCF    38.5
04E6:  MOVF   37,W
04E7:  BTFSS  03.2
04E8:  DECF   38,F
04E9:  MOVF   77,W
04EA:  MOVWF  38
04EB:  MOVLW  2D
04EC:  BTFSS  0C.4
04ED:  GOTO   4EC
04EE:  MOVWF  19
04EF:  MOVF   38,W
04F0:  MOVWF  77
04F1:  CLRF   38
04F2:  MOVLW  30
04F3:  ADDWF  77,F
04F4:  MOVF   77,W
04F5:  BTFSS  0C.4
04F6:  GOTO   4F5
04F7:  MOVWF  19
04F8:  BCF    03.1
04F9:  MOVF   3F,W
04FA:  MOVWF  43
04FB:  MOVF   3E,W
04FC:  MOVWF  42
04FD:  MOVF   3D,W
04FE:  MOVWF  41
04FF:  MOVF   3C,W
0500:  MOVWF  40
0501:  CLRF   47
0502:  CLRF   46
0503:  CLRF   45
0504:  MOVLW  0A
0505:  MOVWF  44
0506:  CALL   3DF
0507:  MOVF   7A,W
0508:  MOVWF  3F
0509:  MOVF   79,W
050A:  MOVWF  3E
050B:  MOVF   78,W
050C:  MOVWF  3D
050D:  MOVF   77,W
050E:  MOVWF  3C
050F:  DECFSZ 3A,F
0510:  GOTO   496
0511:  RETURN
....................  
.................... #list 
....................  
.................... #device ADC = 10 
.................... #use delay(crystal = 20000000) 
.................... #FUSES NOWDT, NOBROWNOUT, NOLVP 
....................  
.................... //Directiva para utilizar puerto USART 
.................... #use rs232(BAUD=9600, XMIT = PIN_C6, RCV=PIN_C7) 
....................  
.................... float sumar(float a, float b) 
*
01C3:  BCF    03.1
01C4:  MOVF   3E,W
01C5:  MOVWF  4A
01C6:  MOVF   3D,W
01C7:  MOVWF  49
01C8:  MOVF   3C,W
01C9:  MOVWF  48
01CA:  MOVF   3B,W
01CB:  MOVWF  47
01CC:  MOVF   42,W
01CD:  MOVWF  4E
01CE:  MOVF   41,W
01CF:  MOVWF  4D
01D0:  MOVF   40,W
01D1:  MOVWF  4C
01D2:  MOVF   3F,W
01D3:  MOVWF  4B
01D4:  CALL   082
01D5:  MOVF   7A,W
01D6:  MOVWF  46
01D7:  MOVF   79,W
01D8:  MOVWF  45
01D9:  MOVF   78,W
01DA:  MOVWF  44
01DB:  MOVF   77,W
01DC:  MOVWF  43
.................... { 
....................    float resultado = a + b; 
....................    return resultado; 
01DD:  MOVF   43,W
01DE:  MOVWF  77
01DF:  MOVF   44,W
01E0:  MOVWF  78
01E1:  MOVF   45,W
01E2:  MOVWF  79
01E3:  MOVF   46,W
01E4:  MOVWF  7A
01E5:  BCF    0A.3
01E6:  BCF    0A.4
01E7:  GOTO   560 (RETURN)
.................... } 
.................... float restar(float a, float b) 
01E8:  BSF    03.1
01E9:  MOVF   3E,W
01EA:  MOVWF  4A
01EB:  MOVF   3D,W
01EC:  MOVWF  49
01ED:  MOVF   3C,W
01EE:  MOVWF  48
01EF:  MOVF   3B,W
01F0:  MOVWF  47
01F1:  MOVF   42,W
01F2:  MOVWF  4E
01F3:  MOVF   41,W
01F4:  MOVWF  4D
01F5:  MOVF   40,W
01F6:  MOVWF  4C
01F7:  MOVF   3F,W
01F8:  MOVWF  4B
01F9:  CALL   082
01FA:  MOVF   7A,W
01FB:  MOVWF  46
01FC:  MOVF   79,W
01FD:  MOVWF  45
01FE:  MOVF   78,W
01FF:  MOVWF  44
0200:  MOVF   77,W
0201:  MOVWF  43
.................... { 
....................    float resultado = a - b; 
....................    return resultado; 
0202:  MOVF   43,W
0203:  MOVWF  77
0204:  MOVF   44,W
0205:  MOVWF  78
0206:  MOVF   45,W
0207:  MOVWF  79
0208:  MOVF   46,W
0209:  MOVWF  7A
020A:  BCF    0A.3
020B:  BCF    0A.4
020C:  GOTO   591 (RETURN)
.................... } 
.................... float dividir(float a, float b) 
020D:  MOVF   3E,W
020E:  MOVWF  4A
020F:  MOVF   3D,W
0210:  MOVWF  49
0211:  MOVF   3C,W
0212:  MOVWF  48
0213:  MOVF   3B,W
0214:  MOVWF  47
0215:  MOVF   42,W
0216:  MOVWF  4E
0217:  MOVF   41,W
0218:  MOVWF  4D
0219:  MOVF   40,W
021A:  MOVWF  4C
021B:  MOVF   3F,W
021C:  MOVWF  4B
*
02E6:  MOVF   7A,W
02E7:  MOVWF  46
02E8:  MOVF   79,W
02E9:  MOVWF  45
02EA:  MOVF   78,W
02EB:  MOVWF  44
02EC:  MOVF   77,W
02ED:  MOVWF  43
.................... { 
....................    float resultado = a / b; 
....................    return resultado; 
02EE:  MOVF   43,W
02EF:  MOVWF  77
02F0:  MOVF   44,W
02F1:  MOVWF  78
02F2:  MOVF   45,W
02F3:  MOVWF  79
02F4:  MOVF   46,W
02F5:  MOVWF  7A
02F6:  BCF    0A.3
02F7:  BCF    0A.4
02F8:  GOTO   5C2 (RETURN)
.................... } 
.................... float multiplicar(float a, float b) 
*
036E:  MOVF   3E,W
036F:  MOVWF  4A
0370:  MOVF   3D,W
0371:  MOVWF  49
0372:  MOVF   3C,W
0373:  MOVWF  48
0374:  MOVF   3B,W
0375:  MOVWF  47
0376:  MOVF   42,W
0377:  MOVWF  4E
0378:  MOVF   41,W
0379:  MOVWF  4D
037A:  MOVF   40,W
037B:  MOVWF  4C
037C:  MOVF   3F,W
037D:  MOVWF  4B
037E:  CALL   2F9
037F:  MOVF   7A,W
0380:  MOVWF  46
0381:  MOVF   79,W
0382:  MOVWF  45
0383:  MOVF   78,W
0384:  MOVWF  44
0385:  MOVF   77,W
0386:  MOVWF  43
.................... { 
....................    float resultado = a * b; 
....................    return resultado; 
0387:  MOVF   43,W
0388:  MOVWF  77
0389:  MOVF   44,W
038A:  MOVWF  78
038B:  MOVF   45,W
038C:  MOVWF  79
038D:  MOVF   46,W
038E:  MOVWF  7A
038F:  BCF    0A.3
0390:  BCF    0A.4
0391:  GOTO   5F3 (RETURN)
.................... } 
....................  
.................... void main() 
*
0512:  MOVF   03,W
0513:  ANDLW  1F
0514:  MOVWF  03
0515:  MOVLW  81
0516:  BSF    03.5
0517:  MOVWF  19
0518:  MOVLW  A6
0519:  MOVWF  18
051A:  MOVLW  90
051B:  BCF    03.5
051C:  MOVWF  18
051D:  BSF    03.5
051E:  BSF    1F.0
051F:  BSF    1F.1
0520:  BSF    1F.2
0521:  BCF    1F.3
0522:  MOVLW  07
0523:  MOVWF  1C
0524:  BCF    03.7
.................... { 
....................    setup_uart(9600); //Configurar baudios 
0525:  MOVLW  81
0526:  MOVWF  19
0527:  MOVLW  A6
0528:  MOVWF  18
0529:  MOVLW  90
052A:  BCF    03.5
052B:  MOVWF  18
....................     
....................    printf("Hola mundo\n\r"); 
052C:  MOVLW  04
052D:  BSF    03.6
052E:  MOVWF  0D
052F:  MOVLW  00
0530:  MOVWF  0F
0531:  BCF    03.6
0532:  GOTO   00B
....................     
....................    int8 num1 = 4; 
....................    int8 num2 = 3; 
....................    float sum; 
....................    float res; 
....................    float div; 
....................    float mul; 
0533:  MOVLW  04
0534:  MOVWF  21
0535:  MOVLW  03
0536:  MOVWF  22
....................     
....................    sum = sumar(num1,num2); 
0537:  CLRF   38
0538:  MOVF   21,W
0539:  MOVWF  37
053A:  CALL   065
053B:  MOVF   7A,W
053C:  MOVWF  36
053D:  MOVF   79,W
053E:  MOVWF  35
053F:  MOVF   78,W
0540:  MOVWF  34
0541:  MOVF   77,W
0542:  MOVWF  33
0543:  CLRF   38
0544:  MOVF   22,W
0545:  MOVWF  37
0546:  CALL   065
0547:  MOVF   7A,W
0548:  MOVWF  3A
0549:  MOVF   79,W
054A:  MOVWF  39
054B:  MOVF   78,W
054C:  MOVWF  38
054D:  MOVF   77,W
054E:  MOVWF  37
054F:  MOVF   36,W
0550:  MOVWF  3E
0551:  MOVF   35,W
0552:  MOVWF  3D
0553:  MOVF   34,W
0554:  MOVWF  3C
0555:  MOVF   33,W
0556:  MOVWF  3B
0557:  MOVF   7A,W
0558:  MOVWF  42
0559:  MOVF   79,W
055A:  MOVWF  41
055B:  MOVF   78,W
055C:  MOVWF  40
055D:  MOVF   77,W
055E:  MOVWF  3F
055F:  GOTO   1C3
0560:  MOVF   7A,W
0561:  MOVWF  26
0562:  MOVF   79,W
0563:  MOVWF  25
0564:  MOVF   78,W
0565:  MOVWF  24
0566:  MOVF   77,W
0567:  MOVWF  23
....................    res = restar(num1,num2); 
0568:  CLRF   38
0569:  MOVF   21,W
056A:  MOVWF  37
056B:  CALL   065
056C:  MOVF   7A,W
056D:  MOVWF  36
056E:  MOVF   79,W
056F:  MOVWF  35
0570:  MOVF   78,W
0571:  MOVWF  34
0572:  MOVF   77,W
0573:  MOVWF  33
0574:  CLRF   38
0575:  MOVF   22,W
0576:  MOVWF  37
0577:  CALL   065
0578:  MOVF   7A,W
0579:  MOVWF  3A
057A:  MOVF   79,W
057B:  MOVWF  39
057C:  MOVF   78,W
057D:  MOVWF  38
057E:  MOVF   77,W
057F:  MOVWF  37
0580:  MOVF   36,W
0581:  MOVWF  3E
0582:  MOVF   35,W
0583:  MOVWF  3D
0584:  MOVF   34,W
0585:  MOVWF  3C
0586:  MOVF   33,W
0587:  MOVWF  3B
0588:  MOVF   7A,W
0589:  MOVWF  42
058A:  MOVF   79,W
058B:  MOVWF  41
058C:  MOVF   78,W
058D:  MOVWF  40
058E:  MOVF   77,W
058F:  MOVWF  3F
0590:  GOTO   1E8
0591:  MOVF   7A,W
0592:  MOVWF  2A
0593:  MOVF   79,W
0594:  MOVWF  29
0595:  MOVF   78,W
0596:  MOVWF  28
0597:  MOVF   77,W
0598:  MOVWF  27
....................    div = dividir(num1,num2); 
0599:  CLRF   38
059A:  MOVF   21,W
059B:  MOVWF  37
059C:  CALL   065
059D:  MOVF   7A,W
059E:  MOVWF  36
059F:  MOVF   79,W
05A0:  MOVWF  35
05A1:  MOVF   78,W
05A2:  MOVWF  34
05A3:  MOVF   77,W
05A4:  MOVWF  33
05A5:  CLRF   38
05A6:  MOVF   22,W
05A7:  MOVWF  37
05A8:  CALL   065
05A9:  MOVF   7A,W
05AA:  MOVWF  3A
05AB:  MOVF   79,W
05AC:  MOVWF  39
05AD:  MOVF   78,W
05AE:  MOVWF  38
05AF:  MOVF   77,W
05B0:  MOVWF  37
05B1:  MOVF   36,W
05B2:  MOVWF  3E
05B3:  MOVF   35,W
05B4:  MOVWF  3D
05B5:  MOVF   34,W
05B6:  MOVWF  3C
05B7:  MOVF   33,W
05B8:  MOVWF  3B
05B9:  MOVF   7A,W
05BA:  MOVWF  42
05BB:  MOVF   79,W
05BC:  MOVWF  41
05BD:  MOVF   78,W
05BE:  MOVWF  40
05BF:  MOVF   77,W
05C0:  MOVWF  3F
05C1:  GOTO   20D
05C2:  MOVF   7A,W
05C3:  MOVWF  2E
05C4:  MOVF   79,W
05C5:  MOVWF  2D
05C6:  MOVF   78,W
05C7:  MOVWF  2C
05C8:  MOVF   77,W
05C9:  MOVWF  2B
....................    mul = multiplicar(num1,num2); 
05CA:  CLRF   38
05CB:  MOVF   21,W
05CC:  MOVWF  37
05CD:  CALL   065
05CE:  MOVF   7A,W
05CF:  MOVWF  36
05D0:  MOVF   79,W
05D1:  MOVWF  35
05D2:  MOVF   78,W
05D3:  MOVWF  34
05D4:  MOVF   77,W
05D5:  MOVWF  33
05D6:  CLRF   38
05D7:  MOVF   22,W
05D8:  MOVWF  37
05D9:  CALL   065
05DA:  MOVF   7A,W
05DB:  MOVWF  3A
05DC:  MOVF   79,W
05DD:  MOVWF  39
05DE:  MOVF   78,W
05DF:  MOVWF  38
05E0:  MOVF   77,W
05E1:  MOVWF  37
05E2:  MOVF   36,W
05E3:  MOVWF  3E
05E4:  MOVF   35,W
05E5:  MOVWF  3D
05E6:  MOVF   34,W
05E7:  MOVWF  3C
05E8:  MOVF   33,W
05E9:  MOVWF  3B
05EA:  MOVF   7A,W
05EB:  MOVWF  42
05EC:  MOVF   79,W
05ED:  MOVWF  41
05EE:  MOVF   78,W
05EF:  MOVWF  40
05F0:  MOVF   77,W
05F1:  MOVWF  3F
05F2:  GOTO   36E
05F3:  MOVF   7A,W
05F4:  MOVWF  32
05F5:  MOVF   79,W
05F6:  MOVWF  31
05F7:  MOVF   78,W
05F8:  MOVWF  30
05F9:  MOVF   77,W
05FA:  MOVWF  2F
....................     
....................    printf("%u + %u: %f\n\r",num1,num2,sum); 
05FB:  MOVF   21,W
05FC:  MOVWF  33
05FD:  MOVLW  1B
05FE:  MOVWF  34
05FF:  CALL   3A7
0600:  MOVLW  20
0601:  BTFSS  0C.4
0602:  GOTO   601
0603:  MOVWF  19
0604:  MOVLW  2B
0605:  BTFSS  0C.4
0606:  GOTO   605
0607:  MOVWF  19
0608:  MOVLW  20
0609:  BTFSS  0C.4
060A:  GOTO   609
060B:  MOVWF  19
060C:  MOVF   22,W
060D:  MOVWF  33
060E:  MOVLW  1B
060F:  MOVWF  34
0610:  CALL   3A7
0611:  MOVLW  3A
0612:  BTFSS  0C.4
0613:  GOTO   612
0614:  MOVWF  19
0615:  MOVLW  20
0616:  BTFSS  0C.4
0617:  GOTO   616
0618:  MOVWF  19
0619:  MOVLW  89
061A:  MOVWF  04
061B:  MOVF   26,W
061C:  MOVWF  36
061D:  MOVF   25,W
061E:  MOVWF  35
061F:  MOVF   24,W
0620:  MOVWF  34
0621:  MOVF   23,W
0622:  MOVWF  33
0623:  MOVLW  02
0624:  MOVWF  37
0625:  CALL   42E
0626:  MOVLW  0A
0627:  BTFSS  0C.4
0628:  GOTO   627
0629:  MOVWF  19
062A:  MOVLW  0D
062B:  BTFSS  0C.4
062C:  GOTO   62B
062D:  MOVWF  19
....................    printf("%u - %u: %f\n\r",num1,num2,res); 
062E:  MOVF   21,W
062F:  MOVWF  33
0630:  MOVLW  1B
0631:  MOVWF  34
0632:  CALL   3A7
0633:  MOVLW  20
0634:  BTFSS  0C.4
0635:  GOTO   634
0636:  MOVWF  19
0637:  MOVLW  2D
0638:  BTFSS  0C.4
0639:  GOTO   638
063A:  MOVWF  19
063B:  MOVLW  20
063C:  BTFSS  0C.4
063D:  GOTO   63C
063E:  MOVWF  19
063F:  MOVF   22,W
0640:  MOVWF  33
0641:  MOVLW  1B
0642:  MOVWF  34
0643:  CALL   3A7
0644:  MOVLW  3A
0645:  BTFSS  0C.4
0646:  GOTO   645
0647:  MOVWF  19
0648:  MOVLW  20
0649:  BTFSS  0C.4
064A:  GOTO   649
064B:  MOVWF  19
064C:  MOVLW  89
064D:  MOVWF  04
064E:  MOVF   2A,W
064F:  MOVWF  36
0650:  MOVF   29,W
0651:  MOVWF  35
0652:  MOVF   28,W
0653:  MOVWF  34
0654:  MOVF   27,W
0655:  MOVWF  33
0656:  MOVLW  02
0657:  MOVWF  37
0658:  CALL   42E
0659:  MOVLW  0A
065A:  BTFSS  0C.4
065B:  GOTO   65A
065C:  MOVWF  19
065D:  MOVLW  0D
065E:  BTFSS  0C.4
065F:  GOTO   65E
0660:  MOVWF  19
....................    printf("%u / %u: %f\n\r",num1,num2,div); 
0661:  MOVF   21,W
0662:  MOVWF  33
0663:  MOVLW  1B
0664:  MOVWF  34
0665:  CALL   3A7
0666:  MOVLW  20
0667:  BTFSS  0C.4
0668:  GOTO   667
0669:  MOVWF  19
066A:  MOVLW  2F
066B:  BTFSS  0C.4
066C:  GOTO   66B
066D:  MOVWF  19
066E:  MOVLW  20
066F:  BTFSS  0C.4
0670:  GOTO   66F
0671:  MOVWF  19
0672:  MOVF   22,W
0673:  MOVWF  33
0674:  MOVLW  1B
0675:  MOVWF  34
0676:  CALL   3A7
0677:  MOVLW  3A
0678:  BTFSS  0C.4
0679:  GOTO   678
067A:  MOVWF  19
067B:  MOVLW  20
067C:  BTFSS  0C.4
067D:  GOTO   67C
067E:  MOVWF  19
067F:  MOVLW  89
0680:  MOVWF  04
0681:  MOVF   2E,W
0682:  MOVWF  36
0683:  MOVF   2D,W
0684:  MOVWF  35
0685:  MOVF   2C,W
0686:  MOVWF  34
0687:  MOVF   2B,W
0688:  MOVWF  33
0689:  MOVLW  02
068A:  MOVWF  37
068B:  CALL   42E
068C:  MOVLW  0A
068D:  BTFSS  0C.4
068E:  GOTO   68D
068F:  MOVWF  19
0690:  MOVLW  0D
0691:  BTFSS  0C.4
0692:  GOTO   691
0693:  MOVWF  19
....................    printf("%u * %u: %f\n\r",num1,num2,mul); 
0694:  MOVF   21,W
0695:  MOVWF  33
0696:  MOVLW  1B
0697:  MOVWF  34
0698:  CALL   3A7
0699:  MOVLW  20
069A:  BTFSS  0C.4
069B:  GOTO   69A
069C:  MOVWF  19
069D:  MOVLW  2A
069E:  BTFSS  0C.4
069F:  GOTO   69E
06A0:  MOVWF  19
06A1:  MOVLW  20
06A2:  BTFSS  0C.4
06A3:  GOTO   6A2
06A4:  MOVWF  19
06A5:  MOVF   22,W
06A6:  MOVWF  33
06A7:  MOVLW  1B
06A8:  MOVWF  34
06A9:  CALL   3A7
06AA:  MOVLW  3A
06AB:  BTFSS  0C.4
06AC:  GOTO   6AB
06AD:  MOVWF  19
06AE:  MOVLW  20
06AF:  BTFSS  0C.4
06B0:  GOTO   6AF
06B1:  MOVWF  19
06B2:  MOVLW  89
06B3:  MOVWF  04
06B4:  MOVF   32,W
06B5:  MOVWF  36
06B6:  MOVF   31,W
06B7:  MOVWF  35
06B8:  MOVF   30,W
06B9:  MOVWF  34
06BA:  MOVF   2F,W
06BB:  MOVWF  33
06BC:  MOVLW  02
06BD:  MOVWF  37
06BE:  CALL   42E
06BF:  MOVLW  0A
06C0:  BTFSS  0C.4
06C1:  GOTO   6C0
06C2:  MOVWF  19
06C3:  MOVLW  0D
06C4:  BTFSS  0C.4
06C5:  GOTO   6C4
06C6:  MOVWF  19
....................    while (1) 
....................     { 
06C7:  GOTO   6C7
....................      
....................     } 
.................... } 
06C8:  SLEEP

Configuration Fuses:
   Word  1: 3F32   HS NOWDT PUT NOBROWNOUT NOLVP NOCPD NOWRT NODEBUG NOPROTECT
